; Function Attrs: nounwind uwtable
define dso_local i32 @_archive_entry_copy_hardlink_l(ptr noundef %0, ptr noundef %1, i64 noundef %2, ptr noundef %3) local_unnamed_addr #0 {
  %5 = icmp eq ptr %1, null
  br i1 %5, label %6, label %.sink.split

6:                                                ; preds = %4
  %7 = getelementptr inbounds nuw i8, ptr %0, i64 192
  %8 = load i32, ptr %7, align 8, !tbaa !31
  %9 = and i32 %8, 2
  %.not = icmp eq i32 %9, 0
  br i1 %.not, label %.sink.split, label %17

.sink.split:                                      ; preds = %6, %4
  %10 = getelementptr inbounds nuw i8, ptr %0, i64 424
  %11 = tail call i32 @archive_mstring_copy_mbs_len_l(ptr noundef nonnull %10, ptr noundef %1, i64 noundef %2, ptr noundef %3) #21
  %12 = icmp ne ptr %1, null
  %13 = icmp eq i32 %11, 0
  %or.cond = select i1 %12, i1 %13, i1 false
  %14 = getelementptr inbounds nuw i8, ptr %0, i64 192
  %15 = load i32, ptr %14, align 8, !tbaa !31
  %16 = and i32 %15, -2
  %masksel = zext i1 %or.cond to i32
  %.sink = or disjoint i32 %16, %masksel
  store i32 %.sink, ptr %14, align 8, !tbaa !31
  br label %17

17:                                               ; preds = %.sink.split, %6
  %.0 = phi i32 [ 0, %6 ], [ %11, %.sink.split ]
  ret i32 %.0
}